target datalayout = "e-m:e-p270:32:32-p271:32:32-p272:64:64-i64:64-i128:128-f80:128-n8:16:32:64-S128"
target triple = "x86_64-pc-linux-gnu"

%struct.AVPixFmtDescriptor = type { ptr, i8, i8, i8, i64, [4 x %struct.AVComponentDescriptor], ptr }
%struct.AVComponentDescriptor = type { i32, i32, i32, i32, i32 }

@.str = private unnamed_addr constant [30 x i8] c"Assertion %s failed at %s:%d\0A\00", align 1
@.str.1 = private unnamed_addr constant [54 x i8] c"desc->nb_components == 3 + !!(desc->flags & (1 << 7))\00", align 1
@.str.2 = private unnamed_addr constant [24 x i8] c"libavfilter/drawutils.c\00", align 1
@.str.3 = private unnamed_addr constant [23 x i8] c"map[RED] != map[GREEN]\00", align 1
@.str.4 = private unnamed_addr constant [24 x i8] c"map[GREEN] != map[BLUE]\00", align 1
@.str.5 = private unnamed_addr constant [22 x i8] c"map[BLUE] != map[RED]\00", align 1
@.str.6 = private unnamed_addr constant [23 x i8] c"map[RED] != map[ALPHA]\00", align 1
@.str.7 = private unnamed_addr constant [25 x i8] c"map[GREEN] != map[ALPHA]\00", align 1
@.str.8 = private unnamed_addr constant [24 x i8] c"map[BLUE] != map[ALPHA]\00", align 1

; Function Attrs: nounwind uwtable
define internal i32 @fill_map(ptr noundef %0, ptr noundef %1) #0 {
  %3 = alloca i32, align 4
  %4 = alloca ptr, align 8
  %5 = alloca ptr, align 8
  %6 = alloca i32, align 4
  %7 = alloca i32, align 4
  %8 = alloca i32, align 4
  %9 = alloca i32, align 4
  %10 = alloca i32, align 4
  %11 = alloca i32, align 4
  store ptr %0, ptr %4, align 8, !tbaa !11
  store ptr %1, ptr %5, align 8, !tbaa !4
  %12 = load ptr, ptr %4, align 8, !tbaa !11
  %13 = getelementptr inbounds nuw %struct.AVPixFmtDescriptor, ptr %12, i32 0, i32 4
  %14 = load i64, ptr %13, align 8, !tbaa !13
  %15 = and i64 %14, 1294
  %16 = icmp ne i64 %15, 0
  br i1 %16, label %17, label %18

17:                                               ; preds = %2
  store i32 -22, ptr %3, align 4
  br label %258

18:                                               ; preds = %2
  br label %19

19:                                               ; preds = %18
  %20 = load ptr, ptr %4, align 8, !tbaa !11
  %21 = getelementptr inbounds nuw %struct.AVPixFmtDescriptor, ptr %20, i32 0, i32 1
  %22 = load i8, ptr %21, align 8, !tbaa !16
  %23 = zext i8 %22 to i32
  %24 = load ptr, ptr %4, align 8, !tbaa !11
  %25 = getelementptr inbounds nuw %struct.AVPixFmtDescriptor, ptr %24, i32 0, i32 4
  %26 = load i64, ptr %25, align 8, !tbaa !13
  %27 = and i64 %26, 128
  %28 = icmp ne i64 %27, 0
  %29 = xor i1 %28, true
  %30 = xor i1 %29, true
  %31 = zext i1 %30 to i32
  %32 = add nsw i32 3, %31
  %33 = icmp eq i32 %23, %32
  br i1 %33, label %35, label %34

34:                                               ; preds = %19
  call void (ptr, i32, ptr, ...) @av_log(ptr noundef null, i32 noundef 0, ptr noundef @.str, ptr noundef @.str.1, ptr noundef @.str.2, i32 noundef 40)
  call void @abort() #9
  unreachable

35:                                               ; preds = %19
  br label %36

36:                                               ; preds = %35
  %37 = load ptr, ptr %4, align 8, !tbaa !11
  %38 = getelementptr inbounds nuw %struct.AVPixFmtDescriptor, ptr %37, i32 0, i32 4
  %39 = load i64, ptr %38, align 8, !tbaa !13
  %40 = and i64 %39, 16
  %41 = icmp ne i64 %40, 0
  br i1 %41, label %42, label %94

42:                                               ; preds = %36
  %43 = load ptr, ptr %4, align 8, !tbaa !11
  %44 = getelementptr inbounds nuw %struct.AVPixFmtDescriptor, ptr %43, i32 0, i32 1
  %45 = load i8, ptr %44, align 8, !tbaa !16
  %46 = zext i8 %45 to i32
  %47 = load ptr, ptr %4, align 8, !tbaa !11
  %48 = call i32 @av_pix_fmt_desc_get_id(ptr noundef %47)
  %49 = call i32 @av_pix_fmt_count_planes(i32 noundef %48)
  %50 = icmp ne i32 %46, %49
  br i1 %50, label %51, label %52

51:                                               ; preds = %42
  store i32 -22, ptr %3, align 4
  br label %258

52:                                               ; preds = %42
  %53 = load ptr, ptr %4, align 8, !tbaa !11
  %54 = getelementptr inbounds nuw %struct.AVPixFmtDescriptor, ptr %53, i32 0, i32 5
  %55 = getelementptr inbounds [4 x %struct.AVComponentDescriptor], ptr %54, i64 0, i64 0
  %56 = getelementptr inbounds nuw %struct.AVComponentDescriptor, ptr %55, i32 0, i32 0
  %57 = load i32, ptr %56, align 8, !tbaa !17
  %58 = trunc i32 %57 to i8
  %59 = load ptr, ptr %5, align 8, !tbaa !4
  %60 = getelementptr inbounds i8, ptr %59, i64 0
  store i8 %58, ptr %60, align 1, !tbaa !19
  %61 = load ptr, ptr %4, align 8, !tbaa !11
  %62 = getelementptr inbounds nuw %struct.AVPixFmtDescriptor, ptr %61, i32 0, i32 5
  %63 = getelementptr inbounds [4 x %struct.AVComponentDescriptor], ptr %62, i64 0, i64 1
  %64 = getelementptr inbounds nuw %struct.AVComponentDescriptor, ptr %63, i32 0, i32 0
  %65 = load i32, ptr %64, align 4, !tbaa !17
  %66 = trunc i32 %65 to i8
  %67 = load ptr, ptr %5, align 8, !tbaa !4
  %68 = getelementptr inbounds i8, ptr %67, i64 1
  store i8 %66, ptr %68, align 1, !tbaa !19
  %69 = load ptr, ptr %4, align 8, !tbaa !11
  %70 = getelementptr inbounds nuw %struct.AVPixFmtDescriptor, ptr %69, i32 0, i32 5
  %71 = getelementptr inbounds [4 x %struct.AVComponentDescriptor], ptr %70, i64 0, i64 2
  %72 = getelementptr inbounds nuw %struct.AVComponentDescriptor, ptr %71, i32 0, i32 0
  %73 = load i32, ptr %72, align 8, !tbaa !17
  %74 = trunc i32 %73 to i8
  %75 = load ptr, ptr %5, align 8, !tbaa !4
  %76 = getelementptr inbounds i8, ptr %75, i64 2
  store i8 %74, ptr %76, align 1, !tbaa !19
  %77 = load ptr, ptr %4, align 8, !tbaa !11
  %78 = getelementptr inbounds nuw %struct.AVPixFmtDescriptor, ptr %77, i32 0, i32 4
  %79 = load i64, ptr %78, align 8, !tbaa !13
  %80 = and i64 %79, 128
  %81 = icmp ne i64 %80, 0
  br i1 %81, label %82, label %88

82:                                               ; preds = %52
  %83 = load ptr, ptr %4, align 8, !tbaa !11
  %84 = getelementptr inbounds nuw %struct.AVPixFmtDescriptor, ptr %83, i32 0, i32 5
  %85 = getelementptr inbounds [4 x %struct.AVComponentDescriptor], ptr %84, i64 0, i64 3
  %86 = getelementptr inbounds nuw %struct.AVComponentDescriptor, ptr %85, i32 0, i32 0
  %87 = load i32, ptr %86, align 4, !tbaa !17
  br label %89

88:                                               ; preds = %52
  br label %89

89:                                               ; preds = %88, %82
  %90 = phi i32 [ %87, %82 ], [ 3, %88 ]
  %91 = trunc i32 %90 to i8
  %92 = load ptr, ptr %5, align 8, !tbaa !4
  %93 = getelementptr inbounds i8, ptr %92, i64 3
  store i8 %91, ptr %93, align 1, !tbaa !19
  br label %179

94:                                               ; preds = %36
  call void @llvm.lifetime.start.p0(i64 4, ptr %6) #8
  store i32 0, ptr %6, align 4, !tbaa !9
  call void @llvm.lifetime.start.p0(i64 4, ptr %7) #8
  store i32 0, ptr %7, align 4, !tbaa !9
  call void @llvm.lifetime.start.p0(i64 4, ptr %8) #8
  store i32 0, ptr %8, align 4, !tbaa !9
  br label %95

95:                                               ; preds = %157, %94
  %96 = load i32, ptr %8, align 4, !tbaa !9
  %97 = load ptr, ptr %4, align 8, !tbaa !11
  %98 = getelementptr inbounds nuw %struct.AVPixFmtDescriptor, ptr %97, i32 0, i32 1
  %99 = load i8, ptr %98, align 8, !tbaa !16
  %100 = zext i8 %99 to i32
  %101 = icmp ult i32 %96, %100
  br i1 %101, label %103, label %102

102:                                              ; preds = %95
  store i32 4, ptr %9, align 4
  br label %160

103:                                              ; preds = %95
  call void @llvm.lifetime.start.p0(i64 4, ptr %10) #8
  %104 = load ptr, ptr %4, align 8, !tbaa !11
  %105 = getelementptr inbounds nuw %struct.AVPixFmtDescriptor, ptr %104, i32 0, i32 5
  %106 = load i32, ptr %8, align 4, !tbaa !9
  %107 = zext i32 %106 to i64
  %108 = getelementptr inbounds nuw [4 x %struct.AVComponentDescriptor], ptr %105, i64 0, i64 %107
  %109 = getelementptr inbounds nuw %struct.AVComponentDescriptor, ptr %108, i32 0, i32 4
  %110 = load i32, ptr %109, align 4, !tbaa !20
  %111 = add nsw i32 %110, 7
  %112 = sdiv i32 %111, 8
  store i32 %112, ptr %10, align 4, !tbaa !9
  call void @llvm.lifetime.start.p0(i64 4, ptr %11) #8
  %113 = load ptr, ptr %4, align 8, !tbaa !11
  %114 = getelementptr inbounds nuw %struct.AVPixFmtDescriptor, ptr %113, i32 0, i32 5
  %115 = load i32, ptr %8, align 4, !tbaa !9
  %116 = zext i32 %115 to i64
  %117 = getelementptr inbounds nuw [4 x %struct.AVComponentDescriptor], ptr %114, i64 0, i64 %116
  %118 = getelementptr inbounds nuw %struct.AVComponentDescriptor, ptr %117, i32 0, i32 2
  %119 = load i32, ptr %118, align 4, !tbaa !21
  %120 = load i32, ptr %10, align 4, !tbaa !9
  %121 = udiv i32 %119, %120
  store i32 %121, ptr %11, align 4, !tbaa !9
  %122 = load i32, ptr %7, align 4, !tbaa !9
  %123 = icmp ne i32 %122, 0
  br i1 %123, label %124, label %129

124:                                              ; preds = %103
  %125 = load i32, ptr %7, align 4, !tbaa !9
  %126 = load i32, ptr %10, align 4, !tbaa !9
  %127 = icmp ne i32 %125, %126
  br i1 %127, label %128, label %129

128:                                              ; preds = %124
  store i32 -38, ptr %3, align 4
  store i32 1, ptr %9, align 4
  br label %154

129:                                              ; preds = %124, %103
  %130 = load ptr, ptr %4, align 8, !tbaa !11
  %131 = getelementptr inbounds nuw %struct.AVPixFmtDescriptor, ptr %130, i32 0, i32 5
  %132 = load i32, ptr %8, align 4, !tbaa !9
  %133 = zext i32 %132 to i64
  %134 = getelementptr inbounds nuw [4 x %struct.AVComponentDescriptor], ptr %131, i64 0, i64 %133
  %135 = getelementptr inbounds nuw %struct.AVComponentDescriptor, ptr %134, i32 0, i32 2
  %136 = load i32, ptr %135, align 4, !tbaa !21
  %137 = load i32, ptr %10, align 4, !tbaa !9
  %138 = urem i32 %136, %137
  %139 = icmp ne i32 %138, 0
  br i1 %139, label %140, label %141

140:                                              ; preds = %129
  store i32 -38, ptr %3, align 4
  store i32 1, ptr %9, align 4
  br label %154

141:                                              ; preds = %129
  %142 = load i32, ptr %11, align 4, !tbaa !9
  %143 = icmp eq i32 %142, 0
  %144 = zext i1 %143 to i32
  %145 = load i32, ptr %6, align 4, !tbaa !9
  %146 = or i32 %145, %144
  store i32 %146, ptr %6, align 4, !tbaa !9
  %147 = load i32, ptr %11, align 4, !tbaa !9
  %148 = trunc i32 %147 to i8
  %149 = load ptr, ptr %5, align 8, !tbaa !4
  %150 = load i32, ptr %8, align 4, !tbaa !9
  %151 = zext i32 %150 to i64
  %152 = getelementptr inbounds nuw i8, ptr %149, i64 %151
  store i8 %148, ptr %152, align 1, !tbaa !19
  %153 = load i32, ptr %10, align 4, !tbaa !9
  store i32 %153, ptr %7, align 4, !tbaa !9
  store i32 0, ptr %9, align 4
  br label %154

154:                                              ; preds = %141, %140, %128
  call void @llvm.lifetime.end.p0(i64 4, ptr %11) #8
  call void @llvm.lifetime.end.p0(i64 4, ptr %10) #8
  %155 = load i32, ptr %9, align 4
  switch i32 %155, label %160 [
    i32 0, label %156
  ]

156:                                              ; preds = %154
  br label %157

157:                                              ; preds = %156
  %158 = load i32, ptr %8, align 4, !tbaa !9
  %159 = add i32 %158, 1
  store i32 %159, ptr %8, align 4, !tbaa !9
  br label %95, !llvm.loop !22

160:                                              ; preds = %154, %102
  call void @llvm.lifetime.end.p0(i64 4, ptr %8) #8
  %161 = load i32, ptr %9, align 4
  switch i32 %161, label %176 [
    i32 4, label %162
  ]

162:                                              ; preds = %160
  %163 = load ptr, ptr %4, align 8, !tbaa !11
  %164 = getelementptr inbounds nuw %struct.AVPixFmtDescriptor, ptr %163, i32 0, i32 1
  %165 = load i8, ptr %164, align 8, !tbaa !16
  %166 = zext i8 %165 to i32
  %167 = icmp eq i32 %166, 3
  br i1 %167, label %168, label %175

168:                                              ; preds = %162
  %169 = load i32, ptr %6, align 4, !tbaa !9
  %170 = icmp ne i32 %169, 0
  %171 = select i1 %170, i32 3, i32 0
  %172 = trunc i32 %171 to i8
  %173 = load ptr, ptr %5, align 8, !tbaa !4
  %174 = getelementptr inbounds i8, ptr %173, i64 3
  store i8 %172, ptr %174, align 1, !tbaa !19
  br label %175

175:                                              ; preds = %168, %162
  store i32 0, ptr %9, align 4
  br label %176

176:                                              ; preds = %175, %160
  call void @llvm.lifetime.end.p0(i64 4, ptr %7) #8
  call void @llvm.lifetime.end.p0(i64 4, ptr %6) #8
  %177 = load i32, ptr %9, align 4
  switch i32 %177, label %260 [
    i32 0, label %178
    i32 1, label %258
  ]

178:                                              ; preds = %176
  br label %179

179:                                              ; preds = %178, %89
  br label %180

180:                                              ; preds = %179
  %181 = load ptr, ptr %5, align 8, !tbaa !4
  %182 = getelementptr inbounds i8, ptr %181, i64 0
  %183 = load i8, ptr %182, align 1, !tbaa !19
  %184 = zext i8 %183 to i32
  %185 = load ptr, ptr %5, align 8, !tbaa !4
  %186 = getelementptr inbounds i8, ptr %185, i64 1
  %187 = load i8, ptr %186, align 1, !tbaa !19
  %188 = zext i8 %187 to i32
  %189 = icmp ne i32 %184, %188
  br i1 %189, label %191, label %190

190:                                              ; preds = %180
  call void (ptr, i32, ptr, ...) @av_log(ptr noundef null, i32 noundef 0, ptr noundef @.str, ptr noundef @.str.3, ptr noundef @.str.2, i32 noundef 70)
  call void @abort() #9
  unreachable

191:                                              ; preds = %180
  br label %192

192:                                              ; preds = %191
  br label %193

193:                                              ; preds = %192
  %194 = load ptr, ptr %5, align 8, !tbaa !4
  %195 = getelementptr inbounds i8, ptr %194, i64 1
  %196 = load i8, ptr %195, align 1, !tbaa !19
  %197 = zext i8 %196 to i32
  %198 = load ptr, ptr %5, align 8, !tbaa !4
  %199 = getelementptr inbounds i8, ptr %198, i64 2
  %200 = load i8, ptr %199, align 1, !tbaa !19
  %201 = zext i8 %200 to i32
  %202 = icmp ne i32 %197, %201
  br i1 %202, label %204, label %203

203:                                              ; preds = %193
  call void (ptr, i32, ptr, ...) @av_log(ptr noundef null, i32 noundef 0, ptr noundef @.str, ptr noundef @.str.4, ptr noundef @.str.2, i32 noundef 71)
  call void @abort() #9
  unreachable

204:                                              ; preds = %193
  br label %205

205:                                              ; preds = %204
  br label %206

206:                                              ; preds = %205
  %207 = load ptr, ptr %5, align 8, !tbaa !4
  %208 = getelementptr inbounds i8, ptr %207, i64 2
  %209 = load i8, ptr %208, align 1, !tbaa !19
  %210 = zext i8 %209 to i32
  %211 = load ptr, ptr %5, align 8, !tbaa !4
  %212 = getelementptr inbounds i8, ptr %211, i64 0
  %213 = load i8, ptr %212, align 1, !tbaa !19
  %214 = zext i8 %213 to i32
  %215 = icmp ne i32 %210, %214
  br i1 %215, label %217, label %216

216:                                              ; preds = %206
  call void (ptr, i32, ptr, ...) @av_log(ptr noundef null, i32 noundef 0, ptr noundef @.str, ptr noundef @.str.5, ptr noundef @.str.2, i32 noundef 72)
  call void @abort() #9
  unreachable

217:                                              ; preds = %206
  br label %218

218:                                              ; preds = %217
  br label %219

219:                                              ; preds = %218
  %220 = load ptr, ptr %5, align 8, !tbaa !4
  %221 = getelementptr inbounds i8, ptr %220, i64 0
  %222 = load i8, ptr %221, align 1, !tbaa !19
  %223 = zext i8 %222 to i32
  %224 = load ptr, ptr %5, align 8, !tbaa !4
  %225 = getelementptr inbounds i8, ptr %224, i64 3
  %226 = load i8, ptr %225, align 1, !tbaa !19
  %227 = zext i8 %226 to i32
  %228 = icmp ne i32 %223, %227
  br i1 %228, label %230, label %229

229:                                              ; preds = %219
  call void (ptr, i32, ptr, ...) @av_log(ptr noundef null, i32 noundef 0, ptr noundef @.str, ptr noundef @.str.6, ptr noundef @.str.2, i32 noundef 73)
  call void @abort() #9
  unreachable

230:                                              ; preds = %219
  br label %231

231:                                              ; preds = %230
  br label %232

232:                                              ; preds = %231
  %233 = load ptr, ptr %5, align 8, !tbaa !4
  %234 = getelementptr inbounds i8, ptr %233, i64 1
  %235 = load i8, ptr %234, align 1, !tbaa !19
  %236 = zext i8 %235 to i32
  %237 = load ptr, ptr %5, align 8, !tbaa !4
  %238 = getelementptr inbounds i8, ptr %237, i64 3
  %239 = load i8, ptr %238, align 1, !tbaa !19
  %240 = zext i8 %239 to i32
  %241 = icmp ne i32 %236, %240
  br i1 %241, label %243, label %242

242:                                              ; preds = %232
  call void (ptr, i32, ptr, ...) @av_log(ptr noundef null, i32 noundef 0, ptr noundef @.str, ptr noundef @.str.7, ptr noundef @.str.2, i32 noundef 74)
  call void @abort() #9
  unreachable

243:                                              ; preds = %232
  br label %244

244:                                              ; preds = %243
  br label %245

245:                                              ; preds = %244
  %246 = load ptr, ptr %5, align 8, !tbaa !4
  %247 = getelementptr inbounds i8, ptr %246, i64 2
  %248 = load i8, ptr %247, align 1, !tbaa !19
  %249 = zext i8 %248 to i32
  %250 = load ptr, ptr %5, align 8, !tbaa !4
  %251 = getelementptr inbounds i8, ptr %250, i64 3
  %252 = load i8, ptr %251, align 1, !tbaa !19
  %253 = zext i8 %252 to i32
  %254 = icmp ne i32 %249, %253
  br i1 %254, label %256, label %255

255:                                              ; preds = %245
  call void (ptr, i32, ptr, ...) @av_log(ptr noundef null, i32 noundef 0, ptr noundef @.str, ptr noundef @.str.8, ptr noundef @.str.2, i32 noundef 75)
  call void @abort() #9
  unreachable

256:                                              ; preds = %245
  br label %257

257:                                              ; preds = %256
  store i32 0, ptr %3, align 4
  br label %258

258:                                              ; preds = %257, %176, %51, %17
  %259 = load i32, ptr %3, align 4
  ret i32 %259

260:                                              ; preds = %176
  unreachable
}