; Function Attrs: nounwind uwtable
define internal fastcc range(i32 -38, 1) i32 @fill_map(ptr noundef %0, ptr noundef captures(none) %1) unnamed_addr #0 {
  %3 = getelementptr inbounds nuw i8, ptr %0, i64 16
  %4 = load i64, ptr %3, align 8, !tbaa !4
  %5 = and i64 %4, 1294
  %.not = icmp eq i64 %5, 0
  br i1 %.not, label %6, label %.loopexit

6:                                                ; preds = %2
  %7 = getelementptr inbounds nuw i8, ptr %0, i64 8
  %8 = load i8, ptr %7, align 8, !tbaa !11
  %9 = zext i8 %8 to i32
  %10 = trunc i64 %4 to i32
  %11 = lshr i32 %10, 7
  %12 = and i32 %11, 1
  %13 = add nuw nsw i32 %12, 3
  %14 = icmp eq i32 %13, %9
  br i1 %14, label %16, label %15

15:                                               ; preds = %6
  tail call void (ptr, i32, ptr, ...) @av_log(ptr noundef null, i32 noundef 0, ptr noundef nonnull @.str, ptr noundef nonnull @.str.1, ptr noundef nonnull @.str.2, i32 noundef 40) #11
  tail call void @abort() #12
  unreachable

16:                                               ; preds = %6
  %17 = and i64 %4, 16
  %.not68 = icmp eq i64 %17, 0
  br i1 %.not68, label %.preheader, label %19

.preheader:                                       ; preds = %16
  %.not7292.not = icmp eq i8 %8, 0
  br i1 %.not7292.not, label %.thread88, label %.lr.ph

.lr.ph:                                           ; preds = %.preheader
  %18 = getelementptr inbounds nuw i8, ptr %0, i64 24
  br label %40

19:                                               ; preds = %16
  %20 = tail call i32 @av_pix_fmt_desc_get_id(ptr noundef nonnull %0) #11
  %21 = tail call i32 @av_pix_fmt_count_planes(i32 noundef %20) #11
  %.not74 = icmp eq i32 %21, %9
  br i1 %.not74, label %22, label %.loopexit

22:                                               ; preds = %19
  %23 = getelementptr inbounds nuw i8, ptr %0, i64 24
  %24 = load i32, ptr %23, align 8, !tbaa !12
  %25 = trunc i32 %24 to i8
  store i8 %25, ptr %1, align 1, !tbaa !15
  %26 = getelementptr inbounds nuw i8, ptr %0, i64 44
  %27 = load i32, ptr %26, align 4, !tbaa !12
  %28 = trunc i32 %27 to i8
  %29 = getelementptr inbounds nuw i8, ptr %1, i64 1
  store i8 %28, ptr %29, align 1, !tbaa !15
  %30 = getelementptr inbounds nuw i8, ptr %0, i64 64
  %31 = load i32, ptr %30, align 8, !tbaa !12
  %32 = trunc i32 %31 to i8
  %33 = getelementptr inbounds nuw i8, ptr %1, i64 2
  store i8 %32, ptr %33, align 1, !tbaa !15
  %34 = load i64, ptr %3, align 8, !tbaa !4
  %35 = and i64 %34, 128
  %.not75 = icmp eq i64 %35, 0
  br i1 %.not75, label %.thread88.sink.split, label %36

36:                                               ; preds = %22
  %37 = getelementptr inbounds nuw i8, ptr %0, i64 84
  %38 = load i32, ptr %37, align 4, !tbaa !12
  %39 = trunc i32 %38 to i8
  br label %.thread88.sink.split

40:                                               ; preds = %.lr.ph, %50
  %indvars.iv = phi i64 [ 0, %.lr.ph ], [ %indvars.iv.next, %50 ]
  %.05495 = phi i32 [ 0, %.lr.ph ], [ %53, %50 ]
  %.06193 = phi i32 [ 0, %.lr.ph ], [ %45, %50 ]
  %41 = getelementptr inbounds nuw [4 x %struct.AVComponentDescriptor], ptr %18, i64 0, i64 %indvars.iv
  %42 = getelementptr inbounds nuw i8, ptr %41, i64 16
  %43 = load i32, ptr %42, align 4, !tbaa !16
  %44 = add nsw i32 %43, 7
  %45 = sdiv i32 %44, 8
  %46 = getelementptr inbounds nuw i8, ptr %41, i64 8
  %47 = load i32, ptr %46, align 4, !tbaa !17
  %48 = udiv i32 %47, %45
  %49 = urem i32 %47, %45
  %.not69 = icmp eq i32 %.06193, 0
  %.not70 = icmp eq i32 %.06193, %45
  %or.cond = or i1 %.not69, %.not70
  %.not71 = icmp eq i32 %49, 0
  %or.cond103 = select i1 %or.cond, i1 %.not71, i1 false
  br i1 %or.cond103, label %50, label %.loopexit

50:                                               ; preds = %40
  %51 = icmp ugt i32 %45, %47
  %52 = zext i1 %51 to i32
  %53 = or i32 %.05495, %52
  %54 = trunc i32 %48 to i8
  %55 = getelementptr inbounds nuw i8, ptr %1, i64 %indvars.iv
  store i8 %54, ptr %55, align 1, !tbaa !15
  %indvars.iv.next = add nuw nsw i64 %indvars.iv, 1
  %56 = load i8, ptr %7, align 8, !tbaa !11
  %57 = zext i8 %56 to i64
  %.not72 = icmp samesign ult i64 %indvars.iv.next, %57
  br i1 %.not72, label %40, label %._crit_edge, !llvm.loop !18

._crit_edge:                                      ; preds = %50
  %58 = icmp eq i8 %56, 3
  %59 = icmp eq i32 %53, 0
  %60 = select i1 %59, i8 0, i8 3
  br i1 %58, label %.thread88.sink.split, label %.thread88

.thread88.sink.split:                             ; preds = %._crit_edge, %36, %22
  %.sink = phi i8 [ %39, %36 ], [ 3, %22 ], [ %60, %._crit_edge ]
  %61 = getelementptr inbounds nuw i8, ptr %1, i64 3
  store i8 %.sink, ptr %61, align 1, !tbaa !15
  br label %.thread88

.thread88:                                        ; preds = %.thread88.sink.split, %.preheader, %._crit_edge
  %62 = load i8, ptr %1, align 1, !tbaa !15
  %63 = getelementptr inbounds nuw i8, ptr %1, i64 1
  %64 = load i8, ptr %63, align 1, !tbaa !15
  %.not76 = icmp eq i8 %62, %64
  br i1 %.not76, label %65, label %66

65:                                               ; preds = %.thread88
  tail call void (ptr, i32, ptr, ...) @av_log(ptr noundef null, i32 noundef 0, ptr noundef nonnull @.str, ptr noundef nonnull @.str.3, ptr noundef nonnull @.str.2, i32 noundef 70) #11
  tail call void @abort() #12
  unreachable

66:                                               ; preds = %.thread88
  %67 = getelementptr inbounds nuw i8, ptr %1, i64 2
  %68 = load i8, ptr %67, align 1, !tbaa !15
  %.not77 = icmp eq i8 %64, %68
  br i1 %.not77, label %69, label %70

69:                                               ; preds = %66
  tail call void (ptr, i32, ptr, ...) @av_log(ptr noundef null, i32 noundef 0, ptr noundef nonnull @.str, ptr noundef nonnull @.str.4, ptr noundef nonnull @.str.2, i32 noundef 71) #11
  tail call void @abort() #12
  unreachable

70:                                               ; preds = %66
  %.not78 = icmp eq i8 %68, %62
  br i1 %.not78, label %71, label %72

71:                                               ; preds = %70
  tail call void (ptr, i32, ptr, ...) @av_log(ptr noundef null, i32 noundef 0, ptr noundef nonnull @.str, ptr noundef nonnull @.str.5, ptr noundef nonnull @.str.2, i32 noundef 72) #11
  tail call void @abort() #12
  unreachable

72:                                               ; preds = %70
  %73 = getelementptr inbounds nuw i8, ptr %1, i64 3
  %74 = load i8, ptr %73, align 1, !tbaa !15
  %.not79 = icmp eq i8 %62, %74
  br i1 %.not79, label %75, label %76

75:                                               ; preds = %72
  tail call void (ptr, i32, ptr, ...) @av_log(ptr noundef null, i32 noundef 0, ptr noundef nonnull @.str, ptr noundef nonnull @.str.6, ptr noundef nonnull @.str.2, i32 noundef 73) #11
  tail call void @abort() #12
  unreachable

76:                                               ; preds = %72
  %.not80 = icmp eq i8 %64, %74
  br i1 %.not80, label %77, label %78

77:                                               ; preds = %76
  tail call void (ptr, i32, ptr, ...) @av_log(ptr noundef null, i32 noundef 0, ptr noundef nonnull @.str, ptr noundef nonnull @.str.7, ptr noundef nonnull @.str.2, i32 noundef 74) #11
  tail call void @abort() #12
  unreachable

78:                                               ; preds = %76
  %.not81 = icmp eq i8 %68, %74
  br i1 %.not81, label %79, label %.loopexit

79:                                               ; preds = %78
  tail call void (ptr, i32, ptr, ...) @av_log(ptr noundef null, i32 noundef 0, ptr noundef nonnull @.str, ptr noundef nonnull @.str.8, ptr noundef nonnull @.str.2, i32 noundef 75) #11
  tail call void @abort() #12
  unreachable

.loopexit:                                        ; preds = %40, %78, %19, %2
  %.0 = phi i32 [ -22, %2 ], [ -22, %19 ], [ 0, %78 ], [ -38, %40 ]
  ret i32 %.0
}